; Function Attrs: nofree norecurse nosync nounwind memory(read, inaccessiblemem: none) uwtable
define dso_local ptr @GetRTEByRangeTablePosn(ptr noundef readonly captures(none) %0, i32 noundef %1, i32 noundef %2) local_unnamed_addr #6 {
  %4 = icmp sgt i32 %2, 0
  br i1 %4, label %.lr.ph, label %._crit_edge

.lr.ph:                                           ; preds = %3, %.lr.ph
  %.05 = phi i32 [ %5, %.lr.ph ], [ %2, %3 ]
  %.034 = phi ptr [ %6, %.lr.ph ], [ %0, %3 ]
  %5 = add nsw i32 %.05, -1
  %6 = load ptr, ptr %.034, align 8
  %7 = icmp samesign ugt i32 %.05, 1
  br i1 %7, label %.lr.ph, label %._crit_edge, !llvm.loop !10

._crit_edge:                                      ; preds = %.lr.ph, %3
  %.03.lcssa = phi ptr [ %0, %3 ], [ %6, %.lr.ph ]
  %8 = getelementptr inbounds nuw i8, ptr %.03.lcssa, i64 24
  %9 = load ptr, ptr %8, align 8
  %10 = add i32 %1, -1
  %11 = getelementptr i8, ptr %9, i64 16
  %.val = load ptr, ptr %11, align 8
  %12 = sext i32 %10 to i64
  %13 = getelementptr inbounds %union.ListCell, ptr %.val, i64 %12
  %14 = load ptr, ptr %13, align 8
  ret ptr %14
}